target datalayout = "e-m:e-p270:32:32-p271:32:32-p272:64:64-i64:64-i128:128-f80:128-n8:16:32:64-S128"
target triple = "x86_64-unknown-linux-gnu"

%class.symbol = type { ptr }
%"class.smt::setup" = type <{ ptr, ptr, ptr, %class.symbol, i8, [7 x i8] }>

; Function Attrs: mustprogress uwtable
define hidden void @_ZN3smt5setup12setup_AUFLIAEb(ptr noundef nonnull align 8 dereferenceable(33) %this, i1 noundef zeroext %simple_array) #5 align 2 {
entry:
  %this.addr = alloca ptr, align 8
  %simple_array.addr = alloca i8, align 1
  store ptr %this, ptr %this.addr, align 8
  %frombool = zext i1 %simple_array to i8
  store i8 %frombool, ptr %simple_array.addr, align 1
  %this1 = load ptr, ptr %this.addr, align 8
  %m_params = getelementptr inbounds %"class.smt::setup", ptr %this1, i32 0, i32 2
  %0 = load ptr, ptr %m_params, align 8
  %1 = load i8, ptr %simple_array.addr, align 1
  %tobool = trunc i8 %1 to i1
  call void @_ZN10smt_params12setup_AUFLIAEb(ptr noundef nonnull align 8 dereferenceable(800) %0, i1 noundef zeroext %tobool)
  %m_context = getelementptr inbounds %"class.smt::setup", ptr %this1, i32 0, i32 0
  %2 = load ptr, ptr %m_context, align 8
  %call = call noalias noundef ptr @_ZN6memory8allocateEm(i64 noundef 1544)
  %m_context2 = getelementptr inbounds %"class.smt::setup", ptr %this1, i32 0, i32 0
  %3 = load ptr, ptr %m_context2, align 8
  call void @_ZN3smt12theory_arithINS_5i_extEEC1ERNS_7contextE(ptr noundef nonnull align 8 dereferenceable(1544) %call, ptr noundef nonnull align 8 dereferenceable(11616) %3)
  call void @_ZN3smt7context15register_pluginEPNS_6theoryE(ptr noundef nonnull align 8 dereferenceable(11616) %2, ptr noundef %call)
  call void @_ZN3smt5setup12setup_arraysEv(ptr noundef nonnull align 8 dereferenceable(33) %this1)
  ret void
}